Certificate:
    Data:
        Version: 3 (0x2)
        Serial Number:
            03:19:21:36:4a:97:b0:79:29:a0:92:d1:66:3c:a2:34
        Signature Algorithm: sha256WithRSAEncryption
        Issuer: CN=UNITY
        Validity
            Not Before: May 27 21:55:05 2023 GMT
            Not After : Aug 29 21:55:05 2025 GMT
        Subject: CN=duetjj
        Subject Public Key Info:
            Public Key Algorithm: rsaEncryption
                Public-Key: (2048 bit)
                Modulus:
                    00:a8:b6:72:a1:4d:a8:a7:6e:f8:7b:5c:76:9c:14:
                    82:41:95:f3:fb:6d:38:03:d1:c3:0a:fa:e0:2d:d6:
                    39:b5:c5:35:e4:cf:72:9e:e0:8f:e1:49:8f:53:63:
                    76:d6:45:0d:48:9a:62:1c:8d:e7:86:c0:b4:9c:fa:
                    bb:06:3a:0f:49:43:98:35:90:61:df:5d:06:3f:83:
                    76:50:95:06:11:4e:bf:d4:18:1e:30:eb:67:cd:0e:
                    77:49:fd:a1:42:e6:19:1c:f5:55:53:fb:7e:2f:3a:
                    bf:94:f5:51:1f:b2:e7:51:a7:ab:6b:01:9c:fd:ee:
                    cf:6f:2c:d9:a2:00:12:d3:05:1e:a8:68:40:d9:6f:
                    ad:90:a4:57:92:9d:6c:24:9d:46:5c:6d:3e:85:db:
                    25:f3:da:0c:84:3d:2c:fc:5f:b9:2d:bd:08:f6:26:
                    a0:bd:9b:df:e7:06:90:04:b0:70:77:78:66:fe:8e:
                    50:99:ae:51:d8:81:5f:57:27:fe:4d:d6:eb:18:1a:
                    79:de:57:00:a6:18:a6:f1:95:85:f9:43:35:ed:9b:
                    40:b6:95:96:0b:2b:53:0b:19:01:d1:76:d1:45:fd:
                    46:81:7f:4d:1a:8c:be:c5:91:49:56:43:6f:b0:a5:
                    f3:19:39:27:1a:f8:90:c0:aa:0a:07:b8:37:40:85:
                    43:a5
                Exponent: 65537 (0x10001)
        X509v3 extensions:
            X509v3 Basic Constraints: 
                CA:FALSE
            X509v3 Subject Key Identifier: 
                CA:C9:89:8D:D0:8B:F3:DB:E2:5A:5D:9C:0A:FE:D8:58:B6:37:86:CC
            X509v3 Authority Key Identifier: 
                keyid:53:63:CA:7B:AA:45:AF:69:C5:63:C0:10:C7:73:AF:A8:09:90:61:68
                DirName:/CN=UNITY
                serial:23:6F:2F:86:28:28:D6:25:E5:36:09:C0:EF:EC:A0:D4:FE:82:91:1E
            X509v3 Extended Key Usage: 
                TLS Web Client Authentication
            X509v3 Key Usage: 
                Digital Signature
    Signature Algorithm: sha256WithRSAEncryption
    Signature Value:
        41:53:3f:c0:61:5b:da:8a:79:47:bd:c8:49:a8:43:61:a7:65:
        dc:19:77:e0:b1:18:4e:86:2b:e3:b2:ba:b1:13:0a:9f:09:63:
        e5:02:55:c3:61:6b:21:98:39:08:ee:9b:0d:e5:a8:bf:77:f9:
        39:f9:7c:ce:46:6a:54:34:31:25:f5:25:87:05:65:66:09:31:
        69:8e:be:5a:8d:b9:48:fa:cf:e7:4c:b5:da:7b:1c:97:cb:0f:
        15:53:81:76:a7:ca:68:96:5c:f9:15:b3:60:d9:f6:d5:3d:b3:
        58:ef:41:d5:d2:a6:61:b6:3f:9d:81:d3:66:60:5a:59:40:24:
        27:fe:b6:43:da:94:b4:a8:cf:f0:84:f7:81:b0:9f:52:7b:42:
        65:f7:51:1c:ea:0d:54:4e:fd:db:7e:0d:00:c1:92:ff:ab:14:
        c5:0b:ac:7b:d3:64:4e:7e:66:ce:ea:00:7f:ed:ae:9b:df:32:
        35:6b:55:62:83:46:ff:58:59:ca:2f:3d:fb:35:55:ef:2d:ad:
        50:f3:c4:ab:e5:c0:8a:ef:c9:15:b5:f8:b1:36:cf:7a:ba:45:
        ac:29:9a:21:fa:cd:86:5f:58:b6:42:0c:73:86:18:f4:70:08:
        1b:6d:2e:48:a7:fe:54:6d:23:59:1e:6f:17:97:80:26:13:d5:
        3e:ab:54:9b
-----BEGIN CERTIFICATE-----
MIIDSDCCAjCgAwIBAgIQAxkhNkqXsHkpoJLRZjyiNDANBgkqhkiG9w0BAQsFADAQ
MQ4wDAYDVQQDDAVVTklUWTAeFw0yMzA1MjcyMTU1MDVaFw0yNTA4MjkyMTU1MDVa
MBExDzANBgNVBAMMBmR1ZXRqajCCASIwDQYJKoZIhvcNAQEBBQADggEPADCCAQoC
ggEBAKi2cqFNqKdu+HtcdpwUgkGV8/ttOAPRwwr64C3WObXFNeTPcp7gj+FJj1Nj
dtZFDUiaYhyN54bAtJz6uwY6D0lDmDWQYd9dBj+DdlCVBhFOv9QYHjDrZ80Od0n9
oULmGRz1VVP7fi86v5T1UR+y51Gnq2sBnP3uz28s2aIAEtMFHqhoQNlvrZCkV5Kd
bCSdRlxtPoXbJfPaDIQ9LPxfuS29CPYmoL2b3+cGkASwcHd4Zv6OUJmuUdiBX1cn
/k3W6xgaed5XAKYYpvGVhflDNe2bQLaVlgsrUwsZAdF20UX9RoF/TRqMvsWRSVZD
b7Cl8xk5Jxr4kMCqCge4N0CFQ6UCAwEAAaOBnDCBmTAJBgNVHRMEAjAAMB0GA1Ud
DgQWBBTKyYmN0Ivz2+JaXZwK/thYtjeGzDBLBgNVHSMERDBCgBRTY8p7qkWvacVj
wBDHc6+oCZBhaKEUpBIwEDEOMAwGA1UEAwwFVU5JVFmCFCNvL4YoKNYl5TYJwO/s
oNT+gpEeMBMGA1UdJQQMMAoGCCsGAQUFBwMCMAsGA1UdDwQEAwIHgDANBgkqhkiG
9w0BAQsFAAOCAQEAQVM/wGFb2op5R73ISahDYadl3Bl34LEYToYr47K6sRMKnwlj
5QJVw2FrIZg5CO6bDeWov3f5Ofl8zkZqVDQxJfUlhwVlZgkxaY6+Wo25SPrP50y1
2nscl8sPFVOBdqfKaJZc+RWzYNn21T2zWO9B1dKmYbY/nYHTZmBaWUAkJ/62Q9qU
tKjP8IT3gbCfUntCZfdRHOoNVE79234NAMGS/6sUxQuse9NkTn5mzuoAf+2um98y
NWtVYoNG/1hZyi89+zVV7y2tUPPEq+XAiu/JFbX4sTbPerpFrCmaIfrNhl9YtkIM
c4YY9HAIG20uSKf+VG0jWR5vF5eAJhPVPqtUmw==
-----END CERTIFICATE-----
